; Function Attrs: mustprogress uwtable
define hidden void @_ZN3sat6solver15update_activityEjd(ptr noundef nonnull align 8 dereferenceable(4408) %this, i32 noundef %v, double noundef %p) local_unnamed_addr #3 align 2 {
entry:
  %m_justification.i = getelementptr inbounds i8, ptr %this, i64 3448
  %0 = load ptr, ptr %m_justification.i, align 8
  %cmp.i.i = icmp eq ptr %0, null
  br i1 %cmp.i.i, label %_ZNK3sat6solver8num_varsEv.exit, label %if.end.i.i

if.end.i.i:                                       ; preds = %entry
  %arrayidx.i.i = getelementptr inbounds i8, ptr %0, i64 -4
  %1 = load i32, ptr %arrayidx.i.i, align 4
  br label %_ZNK3sat6solver8num_varsEv.exit

_ZNK3sat6solver8num_varsEv.exit:                  ; preds = %entry, %if.end.i.i
  %retval.0.i.i = phi i32 [ %1, %if.end.i.i ], [ 0, %entry ]
  %m_activity_scale = getelementptr inbounds i8, ptr %this, i64 108
  %2 = load i32, ptr %m_activity_scale, align 4
  %mul = mul i32 %2, %retval.0.i.i
  %conv = uitofp i32 %mul to double
  %mul2 = fmul double %conv, %p
  %conv3 = fptoui double %mul2 to i32
  %m_activity.i = getelementptr inbounds i8, ptr %this, i64 3528
  %3 = load ptr, ptr %m_activity.i, align 8
  %idxprom.i.i = zext i32 %v to i64
  %arrayidx.i.i1 = getelementptr inbounds i32, ptr %3, i64 %idxprom.i.i
  %4 = load i32, ptr %arrayidx.i.i1, align 4
  store i32 %conv3, ptr %arrayidx.i.i1, align 4
  %m_eliminated.i.i = getelementptr inbounds i8, ptr %this, i64 3480
  %5 = load ptr, ptr %m_eliminated.i.i, align 8
  %arrayidx.i.i.i = getelementptr inbounds i8, ptr %5, i64 %idxprom.i.i
  %6 = load i8, ptr %arrayidx.i.i.i, align 1
  %7 = and i8 %6, 1
  %tobool.i.not.i = icmp eq i8 %7, 0
  br i1 %tobool.i.not.i, label %land.lhs.true.i, label %_ZN3sat6solver12set_activityEjj.exit

land.lhs.true.i:                                  ; preds = %_ZNK3sat6solver8num_varsEv.exit
  %m_assignment.i.i = getelementptr inbounds i8, ptr %this, i64 3440
  %shl.i.i.i = shl i32 %v, 1
  %8 = load ptr, ptr %m_assignment.i.i, align 8
  %idxprom.i.i10.i = zext i32 %shl.i.i.i to i64
  %arrayidx.i.i11.i = getelementptr inbounds i32, ptr %8, i64 %idxprom.i.i10.i
  %9 = load i32, ptr %arrayidx.i.i11.i, align 4
  %cmp.i = icmp ne i32 %9, 0
  %cmp7.not.i = icmp eq i32 %4, %conv3
  %or.cond.i = select i1 %cmp.i, i1 true, i1 %cmp7.not.i
  br i1 %or.cond.i, label %_ZN3sat6solver12set_activityEjj.exit, label %if.then.i

if.then.i:                                        ; preds = %land.lhs.true.i
  %m_case_split_queue.i = getelementptr inbounds i8, ptr %this, i64 3728
  %cmp8.i = icmp ult i32 %4, %conv3
  tail call void @_ZN9var_queueI7svectorIjjEE19activity_changed_ehEjb(ptr noundef nonnull align 8 dereferenceable(24) %m_case_split_queue.i, i32 noundef %v, i1 noundef zeroext %cmp8.i)
  br label %_ZN3sat6solver12set_activityEjj.exit

_ZN3sat6solver12set_activityEjj.exit:             ; preds = %_ZNK3sat6solver8num_varsEv.exit, %land.lhs.true.i, %if.then.i
  ret void
}